target datalayout = "e-m:e-p270:32:32-p271:32:32-p272:64:64-i64:64-i128:128-f80:128-n8:16:32:64-S128"
target triple = "x86_64-pc-linux-gnu"

%struct.H5S_hyper_span_info_t = type { i32, ptr, ptr, [2 x %struct.H5S_hyper_op_info_t], ptr, ptr, [0 x i64] }
%struct.H5S_hyper_op_info_t = type { i64, %union.anon.1 }
%union.anon.1 = type { ptr }
%struct.H5S_hyper_span_t = type { i64, i64, ptr, ptr }

@H5S_init_g = external global i8, align 1
@H5_libterm_g = external global i8, align 1

; Function Attrs: nounwind uwtable
define internal i64 @H5S__hyper_spans_nelem_helper(ptr noundef %0, i32 noundef %1, i64 noundef %2) #0 {
  %4 = alloca ptr, align 8
  %5 = alloca i32, align 4
  %6 = alloca i64, align 8
  %7 = alloca i64, align 8
  %8 = alloca ptr, align 8
  %9 = alloca i64, align 8
  store ptr %0, ptr %4, align 8, !tbaa !107
  store i32 %1, ptr %5, align 4, !tbaa !10
  store i64 %2, ptr %6, align 8, !tbaa !15
  call void @llvm.lifetime.start.p0(i64 8, ptr %7) #7
  store i64 0, ptr %7, align 8, !tbaa !15
  %10 = load i8, ptr @H5S_init_g, align 1, !tbaa !8, !range !12, !noundef !13
  %11 = trunc i8 %10 to i1
  br i1 %11, label %16, label %12

12:                                               ; preds = %3
  %13 = load i8, ptr @H5_libterm_g, align 1, !tbaa !8, !range !12, !noundef !13
  %14 = trunc i8 %13 to i1
  %15 = xor i1 %14, true
  br label %16

16:                                               ; preds = %12, %3
  %17 = phi i1 [ true, %3 ], [ %15, %12 ]
  %18 = xor i1 %17, true
  %19 = xor i1 %18, true
  %20 = zext i1 %19 to i32
  %21 = sext i32 %20 to i64
  %22 = call i64 @llvm.expect.i64(i64 %21, i64 1)
  %23 = icmp ne i64 %22, 0
  br i1 %23, label %24, label %112

24:                                               ; preds = %16
  %25 = load ptr, ptr %4, align 8, !tbaa !107
  %26 = getelementptr inbounds nuw %struct.H5S_hyper_span_info_t, ptr %25, i32 0, i32 3
  %27 = load i32, ptr %5, align 4, !tbaa !10
  %28 = zext i32 %27 to i64
  %29 = getelementptr inbounds nuw [2 x %struct.H5S_hyper_op_info_t], ptr %26, i64 0, i64 %28
  %30 = getelementptr inbounds nuw %struct.H5S_hyper_op_info_t, ptr %29, i32 0, i32 0
  %31 = load i64, ptr %30, align 8, !tbaa !153
  %32 = load i64, ptr %6, align 8, !tbaa !15
  %33 = icmp eq i64 %31, %32
  br i1 %33, label %34, label %42

34:                                               ; preds = %24
  %35 = load ptr, ptr %4, align 8, !tbaa !107
  %36 = getelementptr inbounds nuw %struct.H5S_hyper_span_info_t, ptr %35, i32 0, i32 3
  %37 = load i32, ptr %5, align 4, !tbaa !10
  %38 = zext i32 %37 to i64
  %39 = getelementptr inbounds nuw [2 x %struct.H5S_hyper_op_info_t], ptr %36, i64 0, i64 %38
  %40 = getelementptr inbounds nuw %struct.H5S_hyper_op_info_t, ptr %39, i32 0, i32 1
  %41 = load i64, ptr %40, align 8, !tbaa !14
  store i64 %41, ptr %7, align 8, !tbaa !15
  br label %111

42:                                               ; preds = %24
  call void @llvm.lifetime.start.p0(i64 8, ptr %8) #7
  %43 = load ptr, ptr %4, align 8, !tbaa !107
  %44 = getelementptr inbounds nuw %struct.H5S_hyper_span_info_t, ptr %43, i32 0, i32 4
  %45 = load ptr, ptr %44, align 8, !tbaa !99
  store ptr %45, ptr %8, align 8, !tbaa !99
  %46 = load ptr, ptr %8, align 8, !tbaa !99
  %47 = getelementptr inbounds nuw %struct.H5S_hyper_span_t, ptr %46, i32 0, i32 2
  %48 = load ptr, ptr %47, align 8, !tbaa !103
  %49 = icmp eq ptr null, %48
  br i1 %49, label %50, label %69

50:                                               ; preds = %42
  br label %51

51:                                               ; preds = %54, %50
  %52 = load ptr, ptr %8, align 8, !tbaa !99
  %53 = icmp ne ptr %52, null
  br i1 %53, label %54, label %68

54:                                               ; preds = %51
  %55 = load ptr, ptr %8, align 8, !tbaa !99
  %56 = getelementptr inbounds nuw %struct.H5S_hyper_span_t, ptr %55, i32 0, i32 1
  %57 = load i64, ptr %56, align 8, !tbaa !109
  %58 = load ptr, ptr %8, align 8, !tbaa !99
  %59 = getelementptr inbounds nuw %struct.H5S_hyper_span_t, ptr %58, i32 0, i32 0
  %60 = load i64, ptr %59, align 8, !tbaa !101
  %61 = sub i64 %57, %60
  %62 = add i64 %61, 1
  %63 = load i64, ptr %7, align 8, !tbaa !15
  %64 = add i64 %63, %62
  store i64 %64, ptr %7, align 8, !tbaa !15
  %65 = load ptr, ptr %8, align 8, !tbaa !99
  %66 = getelementptr inbounds nuw %struct.H5S_hyper_span_t, ptr %65, i32 0, i32 3
  %67 = load ptr, ptr %66, align 8, !tbaa !108
  store ptr %67, ptr %8, align 8, !tbaa !99
  br label %51, !llvm.loop !318

68:                                               ; preds = %51
  br label %96

69:                                               ; preds = %42
  br label %70

70:                                               ; preds = %73, %69
  %71 = load ptr, ptr %8, align 8, !tbaa !99
  %72 = icmp ne ptr %71, null
  br i1 %72, label %73, label %95

73:                                               ; preds = %70
  call void @llvm.lifetime.start.p0(i64 8, ptr %9) #7
  %74 = load ptr, ptr %8, align 8, !tbaa !99
  %75 = getelementptr inbounds nuw %struct.H5S_hyper_span_t, ptr %74, i32 0, i32 1
  %76 = load i64, ptr %75, align 8, !tbaa !109
  %77 = load ptr, ptr %8, align 8, !tbaa !99
  %78 = getelementptr inbounds nuw %struct.H5S_hyper_span_t, ptr %77, i32 0, i32 0
  %79 = load i64, ptr %78, align 8, !tbaa !101
  %80 = sub i64 %76, %79
  %81 = add i64 %80, 1
  store i64 %81, ptr %9, align 8, !tbaa !15
  %82 = load i64, ptr %9, align 8, !tbaa !15
  %83 = load ptr, ptr %8, align 8, !tbaa !99
  %84 = getelementptr inbounds nuw %struct.H5S_hyper_span_t, ptr %83, i32 0, i32 2
  %85 = load ptr, ptr %84, align 8, !tbaa !103
  %86 = load i32, ptr %5, align 4, !tbaa !10
  %87 = load i64, ptr %6, align 8, !tbaa !15
  %88 = call i64 @H5S__hyper_spans_nelem_helper(ptr noundef %85, i32 noundef %86, i64 noundef %87)
  %89 = mul i64 %82, %88
  %90 = load i64, ptr %7, align 8, !tbaa !15
  %91 = add i64 %90, %89
  store i64 %91, ptr %7, align 8, !tbaa !15
  %92 = load ptr, ptr %8, align 8, !tbaa !99
  %93 = getelementptr inbounds nuw %struct.H5S_hyper_span_t, ptr %92, i32 0, i32 3
  %94 = load ptr, ptr %93, align 8, !tbaa !108
  store ptr %94, ptr %8, align 8, !tbaa !99
  call void @llvm.lifetime.end.p0(i64 8, ptr %9) #7
  br label %70, !llvm.loop !319

95:                                               ; preds = %70
  br label %96

96:                                               ; preds = %95, %68
  %97 = load i64, ptr %6, align 8, !tbaa !15
  %98 = load ptr, ptr %4, align 8, !tbaa !107
  %99 = getelementptr inbounds nuw %struct.H5S_hyper_span_info_t, ptr %98, i32 0, i32 3
  %100 = load i32, ptr %5, align 4, !tbaa !10
  %101 = zext i32 %100 to i64
  %102 = getelementptr inbounds nuw [2 x %struct.H5S_hyper_op_info_t], ptr %99, i64 0, i64 %101
  %103 = getelementptr inbounds nuw %struct.H5S_hyper_op_info_t, ptr %102, i32 0, i32 0
  store i64 %97, ptr %103, align 8, !tbaa !153
  %104 = load i64, ptr %7, align 8, !tbaa !15
  %105 = load ptr, ptr %4, align 8, !tbaa !107
  %106 = getelementptr inbounds nuw %struct.H5S_hyper_span_info_t, ptr %105, i32 0, i32 3
  %107 = load i32, ptr %5, align 4, !tbaa !10
  %108 = zext i32 %107 to i64
  %109 = getelementptr inbounds nuw [2 x %struct.H5S_hyper_op_info_t], ptr %106, i64 0, i64 %108
  %110 = getelementptr inbounds nuw %struct.H5S_hyper_op_info_t, ptr %109, i32 0, i32 1
  store i64 %104, ptr %110, align 8, !tbaa !14
  call void @llvm.lifetime.end.p0(i64 8, ptr %8) #7
  br label %111

111:                                              ; preds = %96, %34
  br label %112

112:                                              ; preds = %111, %16
  %113 = load i64, ptr %7, align 8, !tbaa !15
  call void @llvm.lifetime.end.p0(i64 8, ptr %7) #7
  ret i64 %113
}