; Function Attrs: nofree nosync nounwind memory(readwrite, inaccessiblemem: none) uwtable
define internal fastcc i64 @H5S__hyper_spans_nelem_helper(ptr noundef captures(none) %0, i64 noundef %1) unnamed_addr #3 {
  %3 = load i8, ptr @H5S_init_g, align 1, !tbaa !3, !range !7, !noundef !8
  %4 = trunc nuw i8 %3 to i1
  %5 = load i8, ptr @H5_libterm_g, align 1, !range !7
  %6 = trunc nuw i8 %5 to i1
  %7 = xor i1 %6, true
  %8 = select i1 %4, i1 true, i1 %7
  br i1 %8, label %9, label %43, !prof !9

9:                                                ; preds = %2
  %10 = getelementptr inbounds nuw i8, ptr %0, i64 24
  %11 = load i64, ptr %10, align 8, !tbaa !146
  %12 = icmp eq i64 %11, %1
  br i1 %12, label %13, label %16

13:                                               ; preds = %9
  %14 = getelementptr inbounds nuw i8, ptr %0, i64 32
  %15 = load i64, ptr %14, align 8, !tbaa !10
  br label %43

16:                                               ; preds = %9
  %17 = getelementptr inbounds nuw i8, ptr %0, i64 56
  %18 = load ptr, ptr %17, align 8, !tbaa !88
  %19 = getelementptr inbounds nuw i8, ptr %18, i64 16
  %20 = load ptr, ptr %19, align 8, !tbaa !92
  %21 = icmp eq ptr %20, null
  br i1 %21, label %.lr.ph40, label %.lr.ph

.lr.ph40:                                         ; preds = %16, %.lr.ph40
  %.139 = phi i64 [ %27, %.lr.ph40 ], [ 0, %16 ]
  %.02738 = phi ptr [ %29, %.lr.ph40 ], [ %18, %16 ]
  %22 = getelementptr inbounds nuw i8, ptr %.02738, i64 8
  %23 = load i64, ptr %22, align 8, !tbaa !97
  %24 = load i64, ptr %.02738, align 8, !tbaa !90
  %25 = add i64 %.139, 1
  %26 = add i64 %25, %23
  %27 = sub i64 %26, %24
  %28 = getelementptr inbounds nuw i8, ptr %.02738, i64 24
  %29 = load ptr, ptr %28, align 8, !tbaa !96
  %.not30 = icmp eq ptr %29, null
  br i1 %.not30, label %.loopexit, label %.lr.ph40, !llvm.loop !292

.lr.ph:                                           ; preds = %16, %.lr.ph
  %.336 = phi i64 [ %39, %.lr.ph ], [ 0, %16 ]
  %.12835 = phi ptr [ %41, %.lr.ph ], [ %18, %16 ]
  %30 = getelementptr inbounds nuw i8, ptr %.12835, i64 8
  %31 = load i64, ptr %30, align 8, !tbaa !97
  %32 = load i64, ptr %.12835, align 8, !tbaa !90
  %33 = add i64 %31, 1
  %34 = sub i64 %33, %32
  %35 = getelementptr inbounds nuw i8, ptr %.12835, i64 16
  %36 = load ptr, ptr %35, align 8, !tbaa !92
  %37 = tail call fastcc i64 @H5S__hyper_spans_nelem_helper(ptr noundef %36, i64 noundef %1)
  %38 = mul i64 %37, %34
  %39 = add i64 %38, %.336
  %40 = getelementptr inbounds nuw i8, ptr %.12835, i64 24
  %41 = load ptr, ptr %40, align 8, !tbaa !96
  %.not = icmp eq ptr %41, null
  br i1 %.not, label %.loopexit, label %.lr.ph, !llvm.loop !293

.loopexit:                                        ; preds = %.lr.ph, %.lr.ph40
  %.2 = phi i64 [ %27, %.lr.ph40 ], [ %39, %.lr.ph ]
  store i64 %1, ptr %10, align 8, !tbaa !146
  %42 = getelementptr inbounds nuw i8, ptr %0, i64 32
  store i64 %.2, ptr %42, align 8, !tbaa !10
  br label %43

43:                                               ; preds = %13, %.loopexit, %2
  %.0 = phi i64 [ %15, %13 ], [ %.2, %.loopexit ], [ 0, %2 ]
  ret i64 %.0
}